target datalayout = "e-m:e-p270:32:32-p271:32:32-p272:64:64-i64:64-i128:128-f80:128-n8:16:32:64-S128"
target triple = "x86_64-pc-linux-gnu"

%"struct.ODDLParser::Text" = type { i64, i64, ptr }

; Function Attrs: mustprogress nounwind uwtable
define hidden noundef zeroext i1 @_ZNK10ODDLParser4TexteqERKS0_(ptr noundef nonnull align 8 dereferenceable(24) %0, ptr noundef nonnull align 8 dereferenceable(24) %1) #1 align 2 {
  %3 = alloca i1, align 1
  %4 = alloca ptr, align 8
  %5 = alloca ptr, align 8
  %6 = alloca i32, align 4
  store ptr %0, ptr %4, align 8
  store ptr %1, ptr %5, align 8
  %7 = load ptr, ptr %4, align 8
  %8 = getelementptr inbounds nuw %"struct.ODDLParser::Text", ptr %7, i32 0, i32 1
  %9 = load i64, ptr %8, align 8
  %10 = load ptr, ptr %5, align 8
  %11 = getelementptr inbounds nuw %"struct.ODDLParser::Text", ptr %10, i32 0, i32 1
  %12 = load i64, ptr %11, align 8
  %13 = icmp ne i64 %9, %12
  br i1 %13, label %14, label %15

14:                                               ; preds = %2
  store i1 false, ptr %3, align 1
  br label %26

15:                                               ; preds = %2
  call void @llvm.lifetime.start.p0(i64 4, ptr %6) #10
  %16 = getelementptr inbounds nuw %"struct.ODDLParser::Text", ptr %7, i32 0, i32 2
  %17 = load ptr, ptr %16, align 8
  %18 = load ptr, ptr %5, align 8
  %19 = getelementptr inbounds nuw %"struct.ODDLParser::Text", ptr %18, i32 0, i32 2
  %20 = load ptr, ptr %19, align 8
  %21 = getelementptr inbounds nuw %"struct.ODDLParser::Text", ptr %7, i32 0, i32 1
  %22 = load i64, ptr %21, align 8
  %23 = call i32 @strncmp(ptr noundef %17, ptr noundef %20, i64 noundef %22) #13
  store i32 %23, ptr %6, align 4
  %24 = load i32, ptr %6, align 4
  %25 = icmp eq i32 0, %24
  store i1 %25, ptr %3, align 1
  call void @llvm.lifetime.end.p0(i64 4, ptr %6) #10
  br label %26

26:                                               ; preds = %15, %14
  %27 = load i1, ptr %3, align 1
  ret i1 %27
}