; Function Attrs: mustprogress nofree nounwind willreturn memory(read, inaccessiblemem: none) uwtable
define hidden noundef zeroext i1 @_ZNK10ODDLParser4TexteqERKS0_(ptr noundef nonnull readonly align 8 captures(none) dereferenceable(24) %0, ptr noundef nonnull readonly align 8 captures(none) dereferenceable(24) %1) local_unnamed_addr #5 align 2 {
  %3 = getelementptr inbounds nuw i8, ptr %0, i64 8
  %4 = load i64, ptr %3, align 8
  %5 = getelementptr inbounds nuw i8, ptr %1, i64 8
  %6 = load i64, ptr %5, align 8
  %.not = icmp eq i64 %4, %6
  br i1 %.not, label %7, label %14

7:                                                ; preds = %2
  %8 = getelementptr inbounds nuw i8, ptr %0, i64 16
  %9 = load ptr, ptr %8, align 8
  %10 = getelementptr inbounds nuw i8, ptr %1, i64 16
  %11 = load ptr, ptr %10, align 8
  %12 = tail call i32 @strncmp(ptr noundef %9, ptr noundef %11, i64 noundef %4) #14
  %13 = icmp eq i32 %12, 0
  br label %14

14:                                               ; preds = %2, %7
  %.0 = phi i1 [ %13, %7 ], [ false, %2 ]
  ret i1 %.0
}